target datalayout = "e-m:e-p270:32:32-p271:32:32-p272:64:64-i64:64-i128:128-f80:128-n8:16:32:64-S128"
target triple = "x86_64-pc-linux-gnu"

%struct.darktable_t = type { %struct.dt_codepath_t, i32, i32, ptr, ptr, ptr, ptr, ptr, ptr, ptr, ptr, ptr, ptr, ptr, ptr, ptr, ptr, ptr, ptr, ptr, ptr, ptr, ptr, ptr, ptr, ptr, ptr, ptr, ptr, ptr, [64 x %struct.dt_pthread_mutex_t], %struct.dt_pthread_mutex_t, %struct.dt_pthread_mutex_t, %struct.dt_pthread_mutex_t, %struct.dt_pthread_mutex_t, %struct.dt_pthread_mutex_t, ptr, ptr, ptr, ptr, ptr, ptr, ptr, ptr, ptr, ptr, ptr, ptr, ptr, %struct.dt_lua_state_t, ptr, double, ptr, i32, [47 x i32], i32, i32, ptr, ptr, %struct.dt_sys_resources_t, %struct.dt_backthumb_t, %struct.dt_gimp_t }
%struct.dt_codepath_t = type { i8, [3 x i8] }
%struct.dt_pthread_mutex_t = type { %union.pthread_mutex_t }
%union.pthread_mutex_t = type { %struct.__pthread_mutex_s }
%struct.__pthread_mutex_s = type { i32, i32, i32, i32, i32, i16, i16, %struct.__pthread_internal_list }
%struct.__pthread_internal_list = type { ptr, ptr }
%struct.dt_lua_state_t = type { i32 }
%struct.dt_sys_resources_t = type { i64, i64, ptr, ptr, i32 }
%struct.dt_backthumb_t = type { double, double, i32, i32, i32, i32 }
%struct.dt_gimp_t = type { i32, ptr, ptr, i32, i32 }
%struct.dt_iop_roi_t = type { i32, i32, i32, i32, float }

@darktable = external global %struct.darktable_t, align 8
@.str.185 = private unnamed_addr constant [19 x i8] c"[dt_dump_pipe_pfm]\00", align 1

; Function Attrs: inlinehint nounwind uwtable
define internal ptr @dt_alloc_align_float(i64 noundef %0) #6 {
  %2 = alloca i64, align 8
  store i64 %0, ptr %2, align 8, !tbaa !13
  %3 = load i64, ptr %2, align 8, !tbaa !13
  %4 = mul i64 %3, 4
  %5 = call ptr @dt_alloc_aligned(i64 noundef %4)
  call void @llvm.assume(i1 true) [ "align"(ptr %5, i64 64) ]
  ret ptr %5
}

; Function Attrs: nounwind uwtable
define internal void @_dump_pipe_pfm_diff(ptr noundef %0, ptr noundef %1, ptr noundef %2, i32 noundef %3, ptr noundef %4, ptr noundef %5, i32 noundef %6, ptr noundef %7) #0 {
  %9 = alloca ptr, align 8
  %10 = alloca ptr, align 8
  %11 = alloca ptr, align 8
  %12 = alloca i32, align 4
  %13 = alloca ptr, align 8
  %14 = alloca ptr, align 8
  %15 = alloca i32, align 4
  %16 = alloca ptr, align 8
  %17 = alloca i32, align 4
  %18 = alloca ptr, align 8
  %19 = alloca i32, align 4
  %20 = alloca ptr, align 8
  %21 = alloca ptr, align 8
  %22 = alloca i32, align 4
  %23 = alloca i32, align 4
  %24 = alloca i64, align 8
  %25 = alloca i32, align 4
  %26 = alloca i32, align 4
  %27 = alloca i32, align 4
  store ptr %0, ptr %9, align 8, !tbaa !130
  store ptr %1, ptr %10, align 8, !tbaa !33
  store ptr %2, ptr %11, align 8, !tbaa !87
  store i32 %3, ptr %12, align 4, !tbaa !11
  store ptr %4, ptr %13, align 8, !tbaa !33
  store ptr %5, ptr %14, align 8, !tbaa !87
  store i32 %6, ptr %15, align 4, !tbaa !11
  store ptr %7, ptr %16, align 8, !tbaa !130
  %28 = load ptr, ptr getelementptr inbounds nuw (%struct.darktable_t, ptr @darktable, i32 0, i32 45), align 8, !tbaa !333
  %29 = icmp ne ptr %28, null
  br i1 %29, label %31, label %30

30:                                               ; preds = %8
  br label %198

31:                                               ; preds = %8
  %32 = load ptr, ptr %9, align 8, !tbaa !130
  %33 = icmp ne ptr %32, null
  br i1 %33, label %35, label %34

34:                                               ; preds = %31
  br label %198

35:                                               ; preds = %31
  %36 = load ptr, ptr getelementptr inbounds nuw (%struct.darktable_t, ptr @darktable, i32 0, i32 45), align 8, !tbaa !333
  %37 = load ptr, ptr %9, align 8, !tbaa !130
  %38 = call i32 @dt_str_commasubstring(ptr noundef %36, ptr noundef %37)
  %39 = icmp ne i32 %38, 0
  br i1 %39, label %41, label %40

40:                                               ; preds = %35
  br label %198

41:                                               ; preds = %35
  %42 = load i32, ptr %12, align 4, !tbaa !11
  %43 = load i32, ptr %15, align 4, !tbaa !11
  %44 = icmp ne i32 %42, %43
  br i1 %44, label %45, label %46

45:                                               ; preds = %41
  br label %198

46:                                               ; preds = %41
  %47 = load i32, ptr %12, align 4, !tbaa !11
  %48 = icmp eq i32 %47, 16
  br i1 %48, label %53, label %49

49:                                               ; preds = %46
  %50 = load i32, ptr %12, align 4, !tbaa !11
  %51 = icmp eq i32 %50, 4
  br i1 %51, label %53, label %52

52:                                               ; preds = %49
  br label %198

53:                                               ; preds = %49, %46
  call void @llvm.lifetime.start.p0(i64 4, ptr %17) #17
  %54 = load i32, ptr %12, align 4, !tbaa !11
  %55 = sdiv i32 %54, 4
  store i32 %55, ptr %17, align 4, !tbaa !11
  call void @llvm.lifetime.start.p0(i64 8, ptr %18) #17
  %56 = load i32, ptr %17, align 4, !tbaa !11
  %57 = sext i32 %56 to i64
  %58 = load ptr, ptr %14, align 8, !tbaa !87
  %59 = getelementptr inbounds nuw %struct.dt_iop_roi_t, ptr %58, i32 0, i32 2
  %60 = load i32, ptr %59, align 4, !tbaa !142
  %61 = sext i32 %60 to i64
  %62 = mul i64 %57, %61
  %63 = load ptr, ptr %14, align 8, !tbaa !87
  %64 = getelementptr inbounds nuw %struct.dt_iop_roi_t, ptr %63, i32 0, i32 3
  %65 = load i32, ptr %64, align 4, !tbaa !143
  %66 = sext i32 %65 to i64
  %67 = mul i64 %62, %66
  %68 = call ptr @dt_alloc_align_float(i64 noundef %67)
  store ptr %68, ptr %18, align 8, !tbaa !193
  %69 = load ptr, ptr %18, align 8, !tbaa !193
  %70 = icmp ne ptr %69, null
  br i1 %70, label %72, label %71

71:                                               ; preds = %53
  store i32 1, ptr %19, align 4
  br label %196

72:                                               ; preds = %53
  call void @llvm.lifetime.start.p0(i64 8, ptr %20) #17
  %73 = load ptr, ptr %10, align 8, !tbaa !33
  store ptr %73, ptr %20, align 8, !tbaa !193
  call void @llvm.lifetime.start.p0(i64 8, ptr %21) #17
  %74 = load ptr, ptr %13, align 8, !tbaa !33
  store ptr %74, ptr %21, align 8, !tbaa !193
  call void @llvm.lifetime.start.p0(i64 4, ptr %22) #17
  store i32 0, ptr %22, align 4, !tbaa !11
  br label %75

75:                                               ; preds = %181, %72
  %76 = load i32, ptr %22, align 4, !tbaa !11
  %77 = load ptr, ptr %14, align 8, !tbaa !87
  %78 = getelementptr inbounds nuw %struct.dt_iop_roi_t, ptr %77, i32 0, i32 3
  %79 = load i32, ptr %78, align 4, !tbaa !143
  %80 = icmp slt i32 %76, %79
  br i1 %80, label %82, label %81

81:                                               ; preds = %75
  store i32 2, ptr %19, align 4
  call void @llvm.lifetime.end.p0(i64 4, ptr %22) #17
  br label %184

82:                                               ; preds = %75
  call void @llvm.lifetime.start.p0(i64 4, ptr %23) #17
  store i32 0, ptr %23, align 4, !tbaa !11
  br label %83

83:                                               ; preds = %177, %82
  %84 = load i32, ptr %23, align 4, !tbaa !11
  %85 = load ptr, ptr %14, align 8, !tbaa !87
  %86 = getelementptr inbounds nuw %struct.dt_iop_roi_t, ptr %85, i32 0, i32 2
  %87 = load i32, ptr %86, align 4, !tbaa !142
  %88 = icmp slt i32 %84, %87
  br i1 %88, label %90, label %89

89:                                               ; preds = %83
  store i32 5, ptr %19, align 4
  call void @llvm.lifetime.end.p0(i64 4, ptr %23) #17
  br label %180

90:                                               ; preds = %83
  call void @llvm.lifetime.start.p0(i64 8, ptr %24) #17
  %91 = load i32, ptr %17, align 4, !tbaa !11
  %92 = load i32, ptr %22, align 4, !tbaa !11
  %93 = load ptr, ptr %14, align 8, !tbaa !87
  %94 = getelementptr inbounds nuw %struct.dt_iop_roi_t, ptr %93, i32 0, i32 2
  %95 = load i32, ptr %94, align 4, !tbaa !142
  %96 = mul nsw i32 %92, %95
  %97 = load i32, ptr %23, align 4, !tbaa !11
  %98 = add nsw i32 %96, %97
  %99 = mul nsw i32 %91, %98
  %100 = sext i32 %99 to i64
  store i64 %100, ptr %24, align 8, !tbaa !13
  call void @llvm.lifetime.start.p0(i64 4, ptr %25) #17
  %101 = load i32, ptr %22, align 4, !tbaa !11
  %102 = load ptr, ptr %14, align 8, !tbaa !87
  %103 = getelementptr inbounds nuw %struct.dt_iop_roi_t, ptr %102, i32 0, i32 1
  %104 = load i32, ptr %103, align 4, !tbaa !141
  %105 = add nsw i32 %101, %104
  store i32 %105, ptr %25, align 4, !tbaa !11
  call void @llvm.lifetime.start.p0(i64 4, ptr %26) #17
  %106 = load i32, ptr %23, align 4, !tbaa !11
  %107 = load ptr, ptr %14, align 8, !tbaa !87
  %108 = getelementptr inbounds nuw %struct.dt_iop_roi_t, ptr %107, i32 0, i32 0
  %109 = load i32, ptr %108, align 4, !tbaa !140
  %110 = add nsw i32 %106, %109
  store i32 %110, ptr %26, align 4, !tbaa !11
  call void @llvm.lifetime.start.p0(i64 4, ptr %27) #17
  store i32 0, ptr %27, align 4, !tbaa !11
  br label %111

111:                                              ; preds = %173, %90
  %112 = load i32, ptr %27, align 4, !tbaa !11
  %113 = load i32, ptr %17, align 4, !tbaa !11
  %114 = icmp slt i32 %112, %113
  br i1 %114, label %116, label %115

115:                                              ; preds = %111
  store i32 8, ptr %19, align 4
  call void @llvm.lifetime.end.p0(i64 4, ptr %27) #17
  br label %176

116:                                              ; preds = %111
  %117 = load i32, ptr %25, align 4, !tbaa !11
  %118 = load ptr, ptr %11, align 8, !tbaa !87
  %119 = getelementptr inbounds nuw %struct.dt_iop_roi_t, ptr %118, i32 0, i32 3
  %120 = load i32, ptr %119, align 4, !tbaa !143
  %121 = icmp slt i32 %117, %120
  br i1 %121, label %122, label %165

122:                                              ; preds = %116
  %123 = load i32, ptr %26, align 4, !tbaa !11
  %124 = load ptr, ptr %11, align 8, !tbaa !87
  %125 = getelementptr inbounds nuw %struct.dt_iop_roi_t, ptr %124, i32 0, i32 2
  %126 = load i32, ptr %125, align 4, !tbaa !142
  %127 = icmp slt i32 %123, %126
  br i1 %127, label %128, label %165

128:                                              ; preds = %122
  %129 = load i32, ptr %26, align 4, !tbaa !11
  %130 = icmp sge i32 %129, 0
  br i1 %130, label %131, label %165

131:                                              ; preds = %128
  %132 = load i32, ptr %25, align 4, !tbaa !11
  %133 = icmp sge i32 %132, 0
  br i1 %133, label %134, label %165

134:                                              ; preds = %131
  %135 = load ptr, ptr %20, align 8, !tbaa !193
  %136 = load i32, ptr %17, align 4, !tbaa !11
  %137 = load i32, ptr %25, align 4, !tbaa !11
  %138 = load ptr, ptr %11, align 8, !tbaa !87
  %139 = getelementptr inbounds nuw %struct.dt_iop_roi_t, ptr %138, i32 0, i32 2
  %140 = load i32, ptr %139, align 4, !tbaa !142
  %141 = mul nsw i32 %137, %140
  %142 = load i32, ptr %26, align 4, !tbaa !11
  %143 = add nsw i32 %141, %142
  %144 = mul nsw i32 %136, %143
  %145 = load i32, ptr %27, align 4, !tbaa !11
  %146 = add nsw i32 %144, %145
  %147 = sext i32 %146 to i64
  %148 = getelementptr inbounds float, ptr %135, i64 %147
  %149 = load float, ptr %148, align 4, !tbaa !194
  %150 = load ptr, ptr %21, align 8, !tbaa !193
  %151 = load i64, ptr %24, align 8, !tbaa !13
  %152 = load i32, ptr %27, align 4, !tbaa !11
  %153 = sext i32 %152 to i64
  %154 = add i64 %151, %153
  %155 = getelementptr inbounds nuw float, ptr %150, i64 %154
  %156 = load float, ptr %155, align 4, !tbaa !194
  %157 = fsub reassoc nsz arcp contract afn float %149, %156
  %158 = call reassoc nsz arcp contract afn float @llvm.fabs.f32(float %157)
  %159 = load ptr, ptr %18, align 8, !tbaa !193
  %160 = load i64, ptr %24, align 8, !tbaa !13
  %161 = load i32, ptr %27, align 4, !tbaa !11
  %162 = sext i32 %161 to i64
  %163 = add i64 %160, %162
  %164 = getelementptr inbounds nuw float, ptr %159, i64 %163
  store float %158, ptr %164, align 4, !tbaa !194
  br label %172

165:                                              ; preds = %131, %128, %122, %116
  %166 = load ptr, ptr %18, align 8, !tbaa !193
  %167 = load i64, ptr %24, align 8, !tbaa !13
  %168 = load i32, ptr %27, align 4, !tbaa !11
  %169 = sext i32 %168 to i64
  %170 = add i64 %167, %169
  %171 = getelementptr inbounds nuw float, ptr %166, i64 %170
  store float 0.000000e+00, ptr %171, align 4, !tbaa !194
  br label %172

172:                                              ; preds = %165, %134
  br label %173

173:                                              ; preds = %172
  %174 = load i32, ptr %27, align 4, !tbaa !11
  %175 = add nsw i32 %174, 1
  store i32 %175, ptr %27, align 4, !tbaa !11
  br label %111

176:                                              ; preds = %115
  call void @llvm.lifetime.end.p0(i64 4, ptr %26) #17
  call void @llvm.lifetime.end.p0(i64 4, ptr %25) #17
  call void @llvm.lifetime.end.p0(i64 8, ptr %24) #17
  br label %177

177:                                              ; preds = %176
  %178 = load i32, ptr %23, align 4, !tbaa !11
  %179 = add nsw i32 %178, 1
  store i32 %179, ptr %23, align 4, !tbaa !11
  br label %83

180:                                              ; preds = %89
  br label %181

181:                                              ; preds = %180
  %182 = load i32, ptr %22, align 4, !tbaa !11
  %183 = add nsw i32 %182, 1
  store i32 %183, ptr %22, align 4, !tbaa !11
  br label %75

184:                                              ; preds = %81
  %185 = load ptr, ptr %16, align 8, !tbaa !130
  %186 = load ptr, ptr %18, align 8, !tbaa !193
  %187 = load ptr, ptr %14, align 8, !tbaa !87
  %188 = getelementptr inbounds nuw %struct.dt_iop_roi_t, ptr %187, i32 0, i32 2
  %189 = load i32, ptr %188, align 4, !tbaa !142
  %190 = load ptr, ptr %14, align 8, !tbaa !87
  %191 = getelementptr inbounds nuw %struct.dt_iop_roi_t, ptr %190, i32 0, i32 3
  %192 = load i32, ptr %191, align 4, !tbaa !143
  %193 = load i32, ptr %15, align 4, !tbaa !11
  %194 = load ptr, ptr %9, align 8, !tbaa !130
  call void @dt_dump_pfm_file(ptr noundef %185, ptr noundef %186, i32 noundef %189, i32 noundef %192, i32 noundef %193, ptr noundef %194, ptr noundef @.str.185, i32 noundef 1, i32 noundef 1, i32 noundef 1)
  %195 = load ptr, ptr %18, align 8, !tbaa !193
  call void @free(ptr noundef %195) #17
  call void @llvm.lifetime.end.p0(i64 8, ptr %21) #17
  call void @llvm.lifetime.end.p0(i64 8, ptr %20) #17
  store i32 0, ptr %19, align 4
  br label %196

196:                                              ; preds = %184, %71
  call void @llvm.lifetime.end.p0(i64 8, ptr %18) #17
  call void @llvm.lifetime.end.p0(i64 4, ptr %17) #17
  %197 = load i32, ptr %19, align 4
  switch i32 %197, label %199 [
    i32 0, label %198
    i32 1, label %198
  ]

198:                                              ; preds = %30, %34, %40, %45, %52, %196, %196
  ret void

199:                                              ; preds = %196
  unreachable
}