; Function Attrs: nounwind uwtable
define internal fastcc void @_dump_pipe_pfm_diff(ptr noundef %0, ptr noundef readonly captures(none) %1, ptr noundef nonnull readonly captures(none) %2, i32 noundef %3, ptr noundef readonly captures(none) %4, ptr noundef nonnull readonly captures(none) %5, i32 noundef %6, ptr noundef %7) unnamed_addr #0 {
  %9 = load ptr, ptr getelementptr inbounds nuw (i8, ptr @darktable, i64 3064), align 8, !tbaa !317
  %10 = icmp ne ptr %9, null
  %11 = icmp ne ptr %0, null
  %or.cond7 = and i1 %11, %10
  br i1 %or.cond7, label %12, label %82

12:                                               ; preds = %8
  %13 = tail call i32 @dt_str_commasubstring(ptr noundef nonnull %9, ptr noundef nonnull %0) #27
  %.not = icmp ne i32 %13, 0
  %.not77 = icmp eq i32 %3, %6
  %or.cond79 = and i1 %.not77, %.not
  br i1 %or.cond79, label %14, label %82

14:                                               ; preds = %12
  switch i32 %3, label %82 [
    i32 16, label %15
    i32 4, label %15
  ]

15:                                               ; preds = %14, %14
  %16 = lshr i32 %3, 2
  %17 = getelementptr inbounds nuw i8, ptr %5, i64 8
  %18 = load i32, ptr %17, align 4, !tbaa !130
  %19 = sext i32 %18 to i64
  %20 = getelementptr inbounds nuw i8, ptr %5, i64 12
  %21 = load i32, ptr %20, align 4, !tbaa !131
  %22 = sext i32 %21 to i64
  %23 = zext nneg i32 %3 to i64
  %24 = mul nsw i64 %23, %19
  %25 = mul i64 %24, %22
  %26 = tail call ptr @dt_alloc_aligned(i64 noundef %25) #27
  call void @llvm.assume(i1 true) [ "align"(ptr %26, i64 64) ]
  %.not78 = icmp eq ptr %26, null
  br i1 %.not78, label %82, label %.preheader80

.preheader80:                                     ; preds = %15
  %27 = load i32, ptr %20, align 4, !tbaa !131
  %28 = icmp sgt i32 %27, 0
  %.pre = load i32, ptr %17, align 4, !tbaa !130
  br i1 %28, label %.preheader.lr.ph, label %._crit_edge

.preheader.lr.ph:                                 ; preds = %.preheader80
  %29 = icmp sgt i32 %.pre, 0
  %30 = getelementptr inbounds nuw i8, ptr %2, i64 8
  br i1 %29, label %.preheader.lr.ph.split.us.split.us, label %._crit_edge

.preheader.lr.ph.split.us.split.us:               ; preds = %.preheader.lr.ph
  %31 = getelementptr inbounds nuw i8, ptr %2, i64 12
  %32 = load i32, ptr %5, align 4, !tbaa !128
  %33 = getelementptr inbounds nuw i8, ptr %5, i64 4
  %34 = load i32, ptr %33, align 4, !tbaa !129
  %35 = load i32, ptr %31, align 4, !tbaa !131
  %36 = mul i32 %.pre, %16
  %37 = and i64 %23, 2147483644
  %38 = and i64 %23, 2147483644
  %39 = zext nneg i32 %16 to i64
  %40 = sext i32 %32 to i64
  %41 = zext nneg i32 %.pre to i64
  %wide.trip.count131 = zext nneg i32 %27 to i64
  %wide.trip.count = zext nneg i32 %.pre to i64
  %wide.trip.count114 = zext nneg i32 %.pre to i64
  %wide.trip.count126 = zext nneg i32 %.pre to i64
  %wide.trip.count121 = zext nneg i32 %16 to i64
  br label %.preheader.us.us

.preheader.us.us:                                 ; preds = %._crit_edge84.split.us.us.us, %.preheader.lr.ph.split.us.split.us
  %indvars.iv128 = phi i64 [ %indvars.iv.next129, %._crit_edge84.split.us.us.us ], [ 0, %.preheader.lr.ph.split.us.split.us ]
  %42 = trunc nuw nsw i64 %indvars.iv128 to i32
  %43 = mul i32 %36, %42
  %44 = zext i32 %43 to i64
  %45 = shl nuw nsw i64 %44, 2
  %46 = mul i64 %indvars.iv128, %41
  %47 = trunc i64 %indvars.iv128 to i32
  %48 = add i32 %34, %47
  %.fr101 = freeze i32 %48
  %49 = icmp slt i32 %.fr101, %35
  br i1 %49, label %.lr.ph83.split.us.split.us.us.us, label %.lr.ph.us.us95.us.preheader

.lr.ph.us.us95.us.preheader:                      ; preds = %.preheader.us.us
  %50 = getelementptr i8, ptr %26, i64 %45
  br label %.lr.ph.us.us95.us

.lr.ph.us.us95.us:                                ; preds = %.lr.ph.us.us95.us.preheader, %.lr.ph.us.us95.us
  %indvar = phi i64 [ 0, %.lr.ph.us.us95.us.preheader ], [ %indvar.next, %.lr.ph.us.us95.us ]
  %51 = mul nuw nsw i64 %38, %indvar
  %scevgep = getelementptr i8, ptr %50, i64 %51
  tail call void @llvm.memset.p0.i64(ptr noundef nonnull align 4 dereferenceable(1) %scevgep, i8 0, i64 %37, i1 false), !tbaa !165
  %indvar.next = add nuw nsw i64 %indvar, 1
  %exitcond.not = icmp eq i64 %indvar.next, %wide.trip.count
  br i1 %exitcond.not, label %._crit_edge84.split.us.us.us, label %.lr.ph.us.us95.us

._crit_edge84.split.us.us.us:                     ; preds = %.lr.ph.us.us95.us, %.lr.ph.us.us.us.us.us, %._crit_edge.split.us.us.us.us.us
  %indvars.iv.next129 = add nuw nsw i64 %indvars.iv128, 1
  %exitcond132.not = icmp eq i64 %indvars.iv.next129, %wide.trip.count131
  br i1 %exitcond132.not, label %._crit_edge, label %.preheader.us.us

.lr.ph83.split.us.split.us.us.us:                 ; preds = %.preheader.us.us
  %52 = icmp sgt i32 %.fr101, -1
  br i1 %52, label %.lr.ph.us.us.us.us.preheader, label %.lr.ph.us.us.us.us.us.preheader

.lr.ph.us.us.us.us.us.preheader:                  ; preds = %.lr.ph83.split.us.split.us.us.us
  %53 = getelementptr i8, ptr %26, i64 %45
  br label %.lr.ph.us.us.us.us.us

.lr.ph.us.us.us.us.preheader:                     ; preds = %.lr.ph83.split.us.split.us.us.us
  %54 = load i32, ptr %30, align 4, !tbaa !130
  %55 = mul nsw i32 %54, %.fr101
  %56 = sext i32 %54 to i64
  %57 = sext i32 %55 to i64
  br label %.lr.ph.us.us.us.us

.lr.ph.us.us.us.us.us:                            ; preds = %.lr.ph.us.us.us.us.us.preheader, %.lr.ph.us.us.us.us.us
  %indvar109 = phi i64 [ 0, %.lr.ph.us.us.us.us.us.preheader ], [ %indvar.next110, %.lr.ph.us.us.us.us.us ]
  %58 = mul nuw nsw i64 %38, %indvar109
  %scevgep111 = getelementptr i8, ptr %53, i64 %58
  tail call void @llvm.memset.p0.i64(ptr noundef nonnull align 4 dereferenceable(1) %scevgep111, i8 0, i64 %37, i1 false), !tbaa !165
  %indvar.next110 = add nuw nsw i64 %indvar109, 1
  %exitcond115.not = icmp eq i64 %indvar.next110, %wide.trip.count114
  br i1 %exitcond115.not, label %._crit_edge84.split.us.us.us, label %.lr.ph.us.us.us.us.us

.lr.ph.us.us.us.us:                               ; preds = %.lr.ph.us.us.us.us.preheader, %._crit_edge.split.us.us.us.us.us
  %indvars.iv123 = phi i64 [ 0, %.lr.ph.us.us.us.us.preheader ], [ %indvars.iv.next124, %._crit_edge.split.us.us.us.us.us ]
  %59 = add nsw i64 %indvars.iv123, %40
  %60 = icmp sgt i64 %59, -1
  %61 = icmp slt i64 %59, %56
  %or.cond3.us.us.us.us.us = and i1 %60, %61
  br i1 %or.cond3.us.us.us.us.us, label %.lr.ph.split.us.split.us.us.us.us.us.preheader, label %.lr.ph.split.us.split.us90.us.us.us.preheader

.lr.ph.split.us.split.us90.us.us.us.preheader:    ; preds = %.lr.ph.us.us.us.us
  %62 = trunc nuw nsw i64 %indvars.iv123 to i32
  %63 = mul i32 %16, %62
  %64 = add i32 %43, %63
  %65 = zext i32 %64 to i64
  %66 = shl nuw nsw i64 %65, 2
  %scevgep116 = getelementptr i8, ptr %26, i64 %66
  tail call void @llvm.memset.p0.i64(ptr noundef nonnull align 4 dereferenceable(1) %scevgep116, i8 0, i64 %37, i1 false), !tbaa !165
  br label %._crit_edge.split.us.us.us.us.us

.lr.ph.split.us.split.us.us.us.us.us.preheader:   ; preds = %.lr.ph.us.us.us.us
  %67 = add nsw i64 %59, %57
  %68 = mul nsw i64 %67, %39
  %69 = add i64 %46, %indvars.iv123
  %70 = trunc i64 %69 to i32
  %71 = mul i32 %16, %70
  %72 = zext i32 %71 to i64
  %73 = getelementptr float, ptr %1, i64 %68
  br label %.lr.ph.split.us.split.us.us.us.us.us

._crit_edge.split.us.us.us.us.us:                 ; preds = %.lr.ph.split.us.split.us.us.us.us.us, %.lr.ph.split.us.split.us90.us.us.us.preheader
  %indvars.iv.next124 = add nuw nsw i64 %indvars.iv123, 1
  %exitcond127.not = icmp eq i64 %indvars.iv.next124, %wide.trip.count126
  br i1 %exitcond127.not, label %._crit_edge84.split.us.us.us, label %.lr.ph.us.us.us.us

.lr.ph.split.us.split.us.us.us.us.us:             ; preds = %.lr.ph.split.us.split.us.us.us.us.us.preheader, %.lr.ph.split.us.split.us.us.us.us.us
  %indvars.iv = phi i64 [ 0, %.lr.ph.split.us.split.us.us.us.us.us.preheader ], [ %indvars.iv.next, %.lr.ph.split.us.split.us.us.us.us.us ]
  %74 = getelementptr float, ptr %73, i64 %indvars.iv
  %75 = load float, ptr %74, align 4, !tbaa !165
  %76 = add nuw nsw i64 %indvars.iv, %72
  %77 = getelementptr inbounds nuw float, ptr %4, i64 %76
  %78 = load float, ptr %77, align 4, !tbaa !165
  %79 = fsub reassoc nsz arcp contract afn float %75, %78
  %80 = tail call reassoc nsz arcp contract afn float @llvm.fabs.f32(float %79)
  %81 = getelementptr inbounds nuw float, ptr %26, i64 %76
  store float %80, ptr %81, align 4, !tbaa !165
  %indvars.iv.next = add nuw nsw i64 %indvars.iv, 1
  %exitcond122.not = icmp eq i64 %indvars.iv.next, %wide.trip.count121
  br i1 %exitcond122.not, label %._crit_edge.split.us.us.us.us.us, label %.lr.ph.split.us.split.us.us.us.us.us

._crit_edge:                                      ; preds = %._crit_edge84.split.us.us.us, %.preheader.lr.ph, %.preheader80
  tail call void @dt_dump_pfm_file(ptr noundef %7, ptr noundef nonnull %26, i32 noundef %.pre, i32 noundef %27, i32 noundef %3, ptr noundef nonnull %0, ptr noundef nonnull @.str.185, i32 noundef 1, i32 noundef 1, i32 noundef 1) #27
  tail call void @free(ptr noundef %26) #27
  br label %82

82:                                               ; preds = %._crit_edge, %15, %14, %12, %8
  ret void
}